; ModuleID = '10/1331.c'
source_filename = "10/1331.c"
target datalayout = "e-m:e-p270:32:32-p271:32:32-p272:64:64-i64:64-f80:128-n8:16:32:64-S128"
target triple = "x86_64-pc-linux-gnu"

@.str = private unnamed_addr constant [3 x i8] c"%d\00", align 1
@n = common dso_local global i32 0, align 4
@a = common dso_local global [25 x i32] zeroinitializer, align 16

; Function Attrs: noinline nounwind uwtable
define dso_local void @main() #0 {
  %1 = alloca i32, align 4
  %2 = alloca i32, align 4
  store i32 0, i32* %2, align 4
  %3 = call i32 (i8*, ...) @__isoc99_scanf(i8* getelementptr inbounds ([3 x i8], [3 x i8]* @.str, i64 0, i64 0), i32* @n)
  store i32 0, i32* %1, align 4
  br label %4

4:                                                ; preds = %13, %0
  %5 = load i32, i32* %1, align 4
  %6 = load i32, i32* @n, align 4
  %7 = icmp slt i32 %5, %6
  br i1 %7, label %8, label %16

8:                                                ; preds = %4
  %9 = load i32, i32* %1, align 4
  %10 = sext i32 %9 to i64
  %11 = getelementptr inbounds [25 x i32], [25 x i32]* @a, i64 0, i64 %10
  %12 = call i32 (i8*, ...) @__isoc99_scanf(i8* getelementptr inbounds ([3 x i8], [3 x i8]* @.str, i64 0, i64 0), i32* %11)
  br label %13

13:                                               ; preds = %8
  %14 = load i32, i32* %1, align 4
  %15 = add nsw i32 %14, 1
  store i32 %15, i32* %1, align 4
  br label %4

16:                                               ; preds = %4
  store i32 0, i32* %1, align 4
  br label %17

17:                                               ; preds = %33, %16
  %18 = load i32, i32* %1, align 4
  %19 = load i32, i32* @n, align 4
  %20 = icmp slt i32 %18, %19
  br i1 %20, label %21, label %36

21:                                               ; preds = %17
  %22 = load i32, i32* %1, align 4
  %23 = call i32 @max(i32 %22)
  %24 = load i32, i32* %2, align 4
  %25 = icmp sgt i32 %23, %24
  br i1 %25, label %26, label %29

26:                                               ; preds = %21
  %27 = load i32, i32* %1, align 4
  %28 = call i32 @max(i32 %27)
  br label %31

29:                                               ; preds = %21
  %30 = load i32, i32* %2, align 4
  br label %31

31:                                               ; preds = %29, %26
  %32 = phi i32 [ %28, %26 ], [ %30, %29 ]
  store i32 %32, i32* %2, align 4
  br label %33

33:                                               ; preds = %31
  %34 = load i32, i32* %1, align 4
  %35 = add nsw i32 %34, 1
  store i32 %35, i32* %1, align 4
  br label %17

36:                                               ; preds = %17
  %37 = load i32, i32* %2, align 4
  %38 = call i32 (i8*, ...) @printf(i8* getelementptr inbounds ([3 x i8], [3 x i8]* @.str, i64 0, i64 0), i32 %37)
  ret void
}

declare dso_local i32 @__isoc99_scanf(i8*, ...) #1

; Function Attrs: noinline nounwind uwtable
define dso_local i32 @max(i32 %0) #0 {
  %2 = alloca i32, align 4
  %3 = alloca i32, align 4
  %4 = alloca i32, align 4
  %5 = alloca i32, align 4
  %6 = alloca i32, align 4
  %7 = alloca i32, align 4
  store i32 %0, i32* %2, align 4
  store i32 1, i32* %3, align 4
  %8 = load i32, i32* %2, align 4
  %9 = load i32, i32* @n, align 4
  %10 = sub nsw i32 %9, 1
  %11 = icmp eq i32 %8, %10
  br i1 %11, label %12, label %13

12:                                               ; preds = %1
  store i32 1, i32* %3, align 4
  br label %48

13:                                               ; preds = %1
  %14 = load i32, i32* %2, align 4
  %15 = add nsw i32 %14, 1
  store i32 %15, i32* %6, align 4
  br label %16

16:                                               ; preds = %44, %13
  %17 = load i32, i32* %6, align 4
  %18 = load i32, i32* @n, align 4
  %19 = icmp slt i32 %17, %18
  br i1 %19, label %20, label %47

20:                                               ; preds = %16
  %21 = load i32, i32* %6, align 4
  %22 = sext i32 %21 to i64
  %23 = getelementptr inbounds [25 x i32], [25 x i32]* @a, i64 0, i64 %22
  %24 = load i32, i32* %23, align 4
  %25 = load i32, i32* %2, align 4
  %26 = sext i32 %25 to i64
  %27 = getelementptr inbounds [25 x i32], [25 x i32]* @a, i64 0, i64 %26
  %28 = load i32, i32* %27, align 4
  %29 = icmp sgt i32 %24, %28
  br i1 %29, label %30, label %31

30:                                               ; preds = %20
  br label %44

31:                                               ; preds = %20
  %32 = load i32, i32* %6, align 4
  %33 = call i32 @max(i32 %32)
  %34 = add nsw i32 1, %33
  store i32 %34, i32* %4, align 4
  %35 = load i32, i32* %4, align 4
  %36 = load i32, i32* %3, align 4
  %37 = icmp sgt i32 %35, %36
  br i1 %37, label %38, label %40

38:                                               ; preds = %31
  %39 = load i32, i32* %4, align 4
  br label %42

40:                                               ; preds = %31
  %41 = load i32, i32* %3, align 4
  br label %42

42:                                               ; preds = %40, %38
  %43 = phi i32 [ %39, %38 ], [ %41, %40 ]
  store i32 %43, i32* %3, align 4
  store i32 0, i32* %4, align 4
  br label %44

44:                                               ; preds = %42, %30
  %45 = load i32, i32* %6, align 4
  %46 = add nsw i32 %45, 1
  store i32 %46, i32* %6, align 4
  br label %16

47:                                               ; preds = %16
  br label %48

48:                                               ; preds = %47, %12
  %49 = load i32, i32* %3, align 4
  ret i32 %49
}

declare dso_local i32 @printf(i8*, ...) #1


!llvm.module.flags = !{!0}
!llvm.ident = !{!1}

!0 = !{i32 1, !"wchar_size", i32 4}
!1 = !{!"clang version 10.0.0-4ubuntu1 "}
